Certificate:
    Data:
        Version: 3 (0x2)
        Serial Number: 1 (0x1)
    Signature Algorithm: sha256WithRSAEncryption
        Issuer: C=FR, ST=Radius, L=Somewhere, O=Example Inc./emailAddress=admin@example.org, CN=Example Certificate Authority
        Validity
            Not Before: Dec 14 03:23:20 2015 GMT
            Not After : Feb 12 03:23:20 2016 GMT
        Subject: C=FR, ST=Radius, O=Example Inc., CN=Example Server Certificate/emailAddress=admin@example.org
        Subject Public Key Info:
            Public Key Algorithm: rsaEncryption
                Public-Key: (2048 bit)
                Modulus:
                    00:ce:b1:39:be:48:da:7d:c8:89:ef:c0:03:19:86:
                    70:ec:ac:a0:72:f0:38:2f:d4:80:6a:5b:1b:17:7a:
                    54:05:12:0a:50:e3:10:2f:1a:a1:ba:34:50:4d:6d:
                    3a:c9:b8:41:60:6c:03:4e:86:d1:cb:43:cc:39:04:
                    8d:6b:13:e6:3e:f7:77:9e:65:03:00:d9:b8:d3:dc:
                    0c:fb:fe:78:cd:a4:2c:83:58:7a:a1:4c:24:29:51:
                    22:22:65:a4:49:2b:75:d6:fa:f1:46:38:92:a7:1a:
                    33:f3:8a:2c:ec:28:7d:39:ec:5f:d4:5b:3a:1e:49:
                    e9:fa:d1:13:86:f4:92:05:16:b2:92:5b:49:88:e1:
                    f0:d1:fd:39:d4:13:7f:1b:dd:dd:67:aa:5f:3b:9b:
                    fe:32:94:4f:b5:98:ba:68:59:f3:80:9d:c3:ad:68:
                    b9:48:80:56:89:47:bf:a5:f6:50:e5:10:84:97:4c:
                    9b:9a:f9:bb:ab:77:fa:f6:61:72:42:0b:37:a8:2a:
                    2c:99:bb:cc:5b:f1:d3:9c:7c:e3:9f:c3:da:9e:2a:
                    4d:0e:1b:61:7a:11:51:30:6c:3f:81:b9:8b:44:c3:
                    fd:19:87:e3:f9:8e:07:0c:36:a6:c6:e4:0d:aa:f8:
                    3c:5d:b3:ad:7d:d0:32:1e:87:c8:54:40:9d:36:68:
                    91:77
                Exponent: 65537 (0x10001)
        X509v3 extensions:
            X509v3 Extended Key Usage: 
                TLS Web Server Authentication
            X509v3 CRL Distribution Points: 

                Full Name:
                  URI:http://www.example.com/example_ca.crl

    Signature Algorithm: sha256WithRSAEncryption
         06:f3:91:58:58:52:0e:e3:75:9f:a6:32:0a:1a:a1:12:4d:0d:
         86:fc:47:d6:a6:77:16:33:48:f0:9f:25:fa:4c:9a:16:58:91:
         3a:1b:c4:40:64:4a:f5:13:28:64:5d:7c:34:6c:e2:61:47:dd:
         0e:98:d9:05:4e:7a:ed:e2:db:2c:5e:03:fc:fb:50:30:c7:2f:
         e4:7a:65:0f:66:3d:d1:4a:33:9a:90:2f:78:a7:e0:a1:4f:af:
         f9:f8:41:1b:bb:a6:35:6f:14:c9:46:1b:1e:3d:a5:d3:00:c3:
         9e:62:f2:2b:d5:72:35:9c:88:a8:e5:05:b8:24:fa:12:29:e4:
         b7:d0:92:37:4f:ae:55:e4:a7:2e:d1:25:3c:15:20:59:1b:41:
         ed:80:04:10:6a:c5:61:ff:cd:41:8e:d4:25:ba:a9:62:1a:17:
         be:f7:5b:31:9e:8f:8a:cb:57:99:f9:52:13:59:09:6c:21:6f:
         8b:36:13:18:e0:39:74:24:30:3c:c5:bc:b1:7b:04:63:27:f2:
         a1:89:67:dc:69:f7:8d:a8:86:a9:6f:1b:ec:b0:37:d1:ab:5b:
         4a:82:ca:fe:85:c1:bd:0e:13:a8:f9:b6:d9:47:dd:57:25:26:
         24:47:9f:86:9f:15:ce:ad:81:b2:07:70:87:db:7e:00:be:f7:
         b7:17:84:8e
-----BEGIN CERTIFICATE-----
MIID2jCCAsKgAwIBAgIBATANBgkqhkiG9w0BAQsFADCBkzELMAkGA1UEBhMCRlIx
DzANBgNVBAgTBlJhZGl1czESMBAGA1UEBxMJU29tZXdoZXJlMRUwEwYDVQQKEwxF
eGFtcGxlIEluYy4xIDAeBgkqhkiG9w0BCQEWEWFkbWluQGV4YW1wbGUub3JnMSYw
JAYDVQQDEx1FeGFtcGxlIENlcnRpZmljYXRlIEF1dGhvcml0eTAeFw0xNTEyMTQw
MzIzMjBaFw0xNjAyMTIwMzIzMjBaMHwxCzAJBgNVBAYTAkZSMQ8wDQYDVQQIEwZS
YWRpdXMxFTATBgNVBAoTDEV4YW1wbGUgSW5jLjEjMCEGA1UEAxMaRXhhbXBsZSBT
ZXJ2ZXIgQ2VydGlmaWNhdGUxIDAeBgkqhkiG9w0BCQEWEWFkbWluQGV4YW1wbGUu
b3JnMIIBIjANBgkqhkiG9w0BAQEFAAOCAQ8AMIIBCgKCAQEAzrE5vkjafciJ78AD
GYZw7KygcvA4L9SAalsbF3pUBRIKUOMQLxqhujRQTW06ybhBYGwDTobRy0PMOQSN
axPmPvd3nmUDANm409wM+/54zaQsg1h6oUwkKVEiImWkSSt11vrxRjiSpxoz84os
7Ch9Oexf1Fs6Hknp+tEThvSSBRaykltJiOHw0f051BN/G93dZ6pfO5v+MpRPtZi6
aFnzgJ3DrWi5SIBWiUe/pfZQ5RCEl0ybmvm7q3f69mFyQgs3qCosmbvMW/HTnHzj
n8PanipNDhthehFRMGw/gbmLRMP9GYfj+Y4HDDamxuQNqvg8XbOtfdAyHofIVECd
NmiRdwIDAQABo08wTTATBgNVHSUEDDAKBggrBgEFBQcDATA2BgNVHR8ELzAtMCug
KaAnhiVodHRwOi8vd3d3LmV4YW1wbGUuY29tL2V4YW1wbGVfY2EuY3JsMA0GCSqG
SIb3DQEBCwUAA4IBAQAG85FYWFIO43WfpjIKGqESTQ2G/EfWpncWM0jwnyX6TJoW
WJE6G8RAZEr1EyhkXXw0bOJhR90OmNkFTnrt4tssXgP8+1Awxy/kemUPZj3RSjOa
kC94p+ChT6/5+EEbu6Y1bxTJRhsePaXTAMOeYvIr1XI1nIio5QW4JPoSKeS30JI3
T65V5Kcu0SU8FSBZG0HtgAQQasVh/81BjtQluqliGhe+91sxno+Ky1eZ+VITWQls
IW+LNhMY4Dl0JDA8xbyxewRjJ/KhiWfcafeNqIapbxvssDfRq1tKgsr+hcG9DhOo
+bbZR91XJSYkR5+GnxXOrYGyB3CH234Avve3F4SO
-----END CERTIFICATE-----
